target datalayout = "e-m:e-p270:32:32-p271:32:32-p272:64:64-i64:64-i128:128-f80:128-n8:16:32:64-S128"
target triple = "x86_64-pc-linux-gnu"

%"class.gmx::internal::AnalysisDataStorageImpl" = type <{ ptr, ptr, i32, i32, %"class.std::vector", i64, i32, [4 x i8], %"class.std::vector.0", i32, [4 x i8] }>
%"class.std::vector" = type { %"struct.std::_Vector_base" }
%"struct.std::_Vector_base" = type { %"struct.std::_Vector_base<std::unique_ptr<gmx::internal::AnalysisDataStorageFrameData>, std::allocator<std::unique_ptr<gmx::internal::AnalysisDataStorageFrameData>>>::_Vector_impl" }
%"struct.std::_Vector_base<std::unique_ptr<gmx::internal::AnalysisDataStorageFrameData>, std::allocator<std::unique_ptr<gmx::internal::AnalysisDataStorageFrameData>>>::_Vector_impl" = type { %"struct.std::_Vector_base<std::unique_ptr<gmx::internal::AnalysisDataStorageFrameData>, std::allocator<std::unique_ptr<gmx::internal::AnalysisDataStorageFrameData>>>::_Vector_impl_data" }
%"struct.std::_Vector_base<std::unique_ptr<gmx::internal::AnalysisDataStorageFrameData>, std::allocator<std::unique_ptr<gmx::internal::AnalysisDataStorageFrameData>>>::_Vector_impl_data" = type { ptr, ptr, ptr }
%"class.std::vector.0" = type { %"struct.std::_Vector_base.1" }
%"struct.std::_Vector_base.1" = type { %"struct.std::_Vector_base<std::unique_ptr<gmx::AnalysisDataStorageFrame>, std::allocator<std::unique_ptr<gmx::AnalysisDataStorageFrame>>>::_Vector_impl" }
%"struct.std::_Vector_base<std::unique_ptr<gmx::AnalysisDataStorageFrame>, std::allocator<std::unique_ptr<gmx::AnalysisDataStorageFrame>>>::_Vector_impl" = type { %"struct.std::_Vector_base<std::unique_ptr<gmx::AnalysisDataStorageFrame>, std::allocator<std::unique_ptr<gmx::AnalysisDataStorageFrame>>>::_Vector_impl_data" }
%"struct.std::_Vector_base<std::unique_ptr<gmx::AnalysisDataStorageFrame>, std::allocator<std::unique_ptr<gmx::AnalysisDataStorageFrame>>>::_Vector_impl_data" = type { ptr, ptr, ptr }
%"class.gmx::internal::AnalysisDataStorageFrameData" = type <{ ptr, %"class.gmx::AnalysisDataFrameHeader", [4 x i8], %"class.std::vector.15", %"class.std::vector.20", %"class.std::unique_ptr.25", i32, [4 x i8] }>
%"class.gmx::AnalysisDataFrameHeader" = type { i32, float, float }
%"class.std::vector.15" = type { %"struct.std::_Vector_base.16" }
%"struct.std::_Vector_base.16" = type { %"struct.std::_Vector_base<gmx::AnalysisDataValue, std::allocator<gmx::AnalysisDataValue>>::_Vector_impl" }
%"struct.std::_Vector_base<gmx::AnalysisDataValue, std::allocator<gmx::AnalysisDataValue>>::_Vector_impl" = type { %"struct.std::_Vector_base<gmx::AnalysisDataValue, std::allocator<gmx::AnalysisDataValue>>::_Vector_impl_data" }
%"struct.std::_Vector_base<gmx::AnalysisDataValue, std::allocator<gmx::AnalysisDataValue>>::_Vector_impl_data" = type { ptr, ptr, ptr }
%"class.std::vector.20" = type { %"struct.std::_Vector_base.21" }
%"struct.std::_Vector_base.21" = type { %"struct.std::_Vector_base<gmx::AnalysisDataPointSetInfo, std::allocator<gmx::AnalysisDataPointSetInfo>>::_Vector_impl" }
%"struct.std::_Vector_base<gmx::AnalysisDataPointSetInfo, std::allocator<gmx::AnalysisDataPointSetInfo>>::_Vector_impl" = type { %"struct.std::_Vector_base<gmx::AnalysisDataPointSetInfo, std::allocator<gmx::AnalysisDataPointSetInfo>>::_Vector_impl_data" }
%"struct.std::_Vector_base<gmx::AnalysisDataPointSetInfo, std::allocator<gmx::AnalysisDataPointSetInfo>>::_Vector_impl_data" = type { ptr, ptr, ptr }
%"class.std::unique_ptr.25" = type { %"struct.std::__uniq_ptr_data.26" }
%"struct.std::__uniq_ptr_data.26" = type { %"class.std::__uniq_ptr_impl.27" }
%"class.std::__uniq_ptr_impl.27" = type { %"class.std::tuple.28" }
%"class.std::tuple.28" = type { %"struct.std::_Tuple_impl.29" }
%"struct.std::_Tuple_impl.29" = type { %"struct.std::_Head_base.32" }
%"struct.std::_Head_base.32" = type { ptr }
%"class.gmx::AnalysisDataStorageFrame" = type <{ ptr, %"class.std::vector.15", i32, i32, i32, i8, [3 x i8] }>
%class.anon.74 = type { i8 }
%class.anon.76 = type { i8 }
%class.anon.78 = type { i8 }

@.str.2 = private unnamed_addr constant [134 x i8] c"generated/home/dtcxzyw/WorkSpace/Projects/compilers/llvm-opt-benchmark/bench/gromacs/gromacs/src/gromacs/analysisdata/datastorage.cpp\00", align 1
@.str.28 = private unnamed_addr constant [17 x i8] c"data_ != nullptr\00", align 1
@.str.29 = private unnamed_addr constant [23 x i8] c"Invalid frame accessed\00", align 1
@"__PRETTY_FUNCTION__._ZZN3gmx24AnalysisDataStorageFrame13selectDataSetEiENK3$_0clEv" = private unnamed_addr constant [94 x i8] c"auto gmx::AnalysisDataStorageFrame::selectDataSet(int)::(anonymous class)::operator()() const\00", align 1
@.str.30 = private unnamed_addr constant [46 x i8] c"index >= 0 && index < baseData.dataSetCount()\00", align 1
@.str.31 = private unnamed_addr constant [28 x i8] c"Out of range data set index\00", align 1
@.str.32 = private unnamed_addr constant [50 x i8] c"!baseData.isMultipoint() || !bPointSetInProgress_\00", align 1
@.str.33 = private unnamed_addr constant [52 x i8] c"Point sets in multipoint data cannot span data sets\00", align 1

; Function Attrs: mustprogress nounwind uwtable
define linkonce_odr noundef nonnull align 8 dereferenceable(92) ptr @_ZNK3gmx8internal28AnalysisDataStorageFrameData11storageImplEv(ptr noundef nonnull align 8 dereferenceable(84) %0) #0 comdat align 2 {
  %2 = alloca ptr, align 8
  store ptr %0, ptr %2, align 8
  %3 = load ptr, ptr %2, align 8
  %4 = getelementptr inbounds %"class.gmx::internal::AnalysisDataStorageFrameData", ptr %3, i32 0, i32 0
  %5 = load ptr, ptr %4, align 8
  ret ptr %5
}

; Function Attrs: mustprogress uwtable
define internal void @"_ZZN3gmx24AnalysisDataStorageFrame13selectDataSetEiENK3$_2clEv"(ptr noundef nonnull align 1 dereferenceable(1) %0) #1 align 2 {
  %2 = alloca ptr, align 8
  store ptr %0, ptr %2, align 8
  call void @_ZN3gmx8internal13assertHandlerEPKcS2_S2_S2_i(ptr noundef @.str.32, ptr noundef @.str.33, ptr noundef @"__PRETTY_FUNCTION__._ZZN3gmx24AnalysisDataStorageFrame13selectDataSetEiENK3$_0clEv", ptr noundef @.str.2, i32 noundef 676) #11
  unreachable
}

; Function Attrs: mustprogress uwtable
define internal void @"_ZZN3gmx24AnalysisDataStorageFrame13selectDataSetEiENK3$_1clEv"(ptr noundef nonnull align 1 dereferenceable(1) %0) #1 align 2 {
  %2 = alloca ptr, align 8
  store ptr %0, ptr %2, align 8
  call void @_ZN3gmx8internal13assertHandlerEPKcS2_S2_S2_i(ptr noundef @.str.30, ptr noundef @.str.31, ptr noundef @"__PRETTY_FUNCTION__._ZZN3gmx24AnalysisDataStorageFrame13selectDataSetEiENK3$_0clEv", ptr noundef @.str.2, i32 noundef 674) #11
  unreachable
}

; Function Attrs: mustprogress uwtable
define linkonce_odr noundef nonnull align 8 dereferenceable(16) ptr @_ZNK3gmx8internal28AnalysisDataStorageFrameData8baseDataEv(ptr noundef nonnull align 8 dereferenceable(84) %0) #1 comdat align 2 {
  %2 = alloca ptr, align 8
  store ptr %0, ptr %2, align 8
  %3 = load ptr, ptr %2, align 8
  %4 = call noundef nonnull align 8 dereferenceable(92) ptr @_ZNK3gmx8internal28AnalysisDataStorageFrameData11storageImplEv(ptr noundef nonnull align 8 dereferenceable(84) %3)
  %5 = getelementptr inbounds %"class.gmx::internal::AnalysisDataStorageImpl", ptr %4, i32 0, i32 0
  %6 = load ptr, ptr %5, align 8
  ret ptr %6
}

; Function Attrs: mustprogress uwtable
define internal void @"_ZZN3gmx24AnalysisDataStorageFrame13selectDataSetEiENK3$_0clEv"(ptr noundef nonnull align 1 dereferenceable(1) %0) #1 align 2 {
  %2 = alloca ptr, align 8
  store ptr %0, ptr %2, align 8
  call void @_ZN3gmx8internal13assertHandlerEPKcS2_S2_S2_i(ptr noundef @.str.28, ptr noundef @.str.29, ptr noundef @"__PRETTY_FUNCTION__._ZZN3gmx24AnalysisDataStorageFrame13selectDataSetEiENK3$_0clEv", ptr noundef @.str.2, i32 noundef 672) #11
  unreachable
}

; Function Attrs: mustprogress uwtable
define void @_ZN3gmx24AnalysisDataStorageFrame13selectDataSetEi(ptr noundef nonnull align 8 dereferenceable(45) %0, i32 noundef %1) #1 align 2 {
  %3 = alloca ptr, align 8
  %4 = alloca i32, align 4
  %5 = alloca %class.anon.74, align 1
  %6 = alloca ptr, align 8
  %7 = alloca %class.anon.76, align 1
  %8 = alloca %class.anon.78, align 1
  %9 = alloca i32, align 4
  store ptr %0, ptr %3, align 8
  store i32 %1, ptr %4, align 4
  %10 = load ptr, ptr %3, align 8
  %11 = getelementptr inbounds %"class.gmx::AnalysisDataStorageFrame", ptr %10, i32 0, i32 0
  %12 = load ptr, ptr %11, align 8
  %13 = icmp ne ptr %12, null
  br i1 %13, label %14, label %15

14:                                               ; preds = %2
  br label %16

15:                                               ; preds = %2
  call void @"_ZZN3gmx24AnalysisDataStorageFrame13selectDataSetEiENK3$_0clEv"(ptr noundef nonnull align 1 dereferenceable(1) %5)
  br label %16

16:                                               ; preds = %15, %14
  %17 = getelementptr inbounds %"class.gmx::AnalysisDataStorageFrame", ptr %10, i32 0, i32 0
  %18 = load ptr, ptr %17, align 8
  %19 = call noundef nonnull align 8 dereferenceable(16) ptr @_ZNK3gmx8internal28AnalysisDataStorageFrameData8baseDataEv(ptr noundef nonnull align 8 dereferenceable(84) %18)
  store ptr %19, ptr %6, align 8
  %20 = load i32, ptr %4, align 4
  %21 = icmp sge i32 %20, 0
  br i1 %21, label %22, label %28

22:                                               ; preds = %16
  %23 = load i32, ptr %4, align 4
  %24 = load ptr, ptr %6, align 8
  %25 = call noundef i32 @_ZNK3gmx20AbstractAnalysisData12dataSetCountEv(ptr noundef nonnull align 8 dereferenceable(16) %24)
  %26 = icmp slt i32 %23, %25
  br i1 %26, label %27, label %28

27:                                               ; preds = %22
  br label %29

28:                                               ; preds = %22, %16
  call void @"_ZZN3gmx24AnalysisDataStorageFrame13selectDataSetEiENK3$_1clEv"(ptr noundef nonnull align 1 dereferenceable(1) %7)
  br label %29

29:                                               ; preds = %28, %27
  %30 = load ptr, ptr %6, align 8
  %31 = call noundef zeroext i1 @_ZNK3gmx20AbstractAnalysisData12isMultipointEv(ptr noundef nonnull align 8 dereferenceable(16) %30)
  br i1 %31, label %32, label %36

32:                                               ; preds = %29
  %33 = getelementptr inbounds %"class.gmx::AnalysisDataStorageFrame", ptr %10, i32 0, i32 5
  %34 = load i8, ptr %33, align 4
  %35 = trunc i8 %34 to i1
  br i1 %35, label %37, label %36

36:                                               ; preds = %32, %29
  br label %38

37:                                               ; preds = %32
  call void @"_ZZN3gmx24AnalysisDataStorageFrame13selectDataSetEiENK3$_2clEv"(ptr noundef nonnull align 1 dereferenceable(1) %8)
  br label %38

38:                                               ; preds = %37, %36
  %39 = load i32, ptr %4, align 4
  %40 = getelementptr inbounds %"class.gmx::AnalysisDataStorageFrame", ptr %10, i32 0, i32 2
  store i32 %39, ptr %40, align 8
  %41 = getelementptr inbounds %"class.gmx::AnalysisDataStorageFrame", ptr %10, i32 0, i32 3
  store i32 0, ptr %41, align 4
  store i32 0, ptr %9, align 4
  br label %42

42:                                               ; preds = %53, %38
  %43 = load i32, ptr %9, align 4
  %44 = load i32, ptr %4, align 4
  %45 = icmp slt i32 %43, %44
  br i1 %45, label %46, label %56

46:                                               ; preds = %42
  %47 = load ptr, ptr %6, align 8
  %48 = load i32, ptr %9, align 4
  %49 = call noundef i32 @_ZNK3gmx20AbstractAnalysisData11columnCountEi(ptr noundef nonnull align 8 dereferenceable(16) %47, i32 noundef %48)
  %50 = getelementptr inbounds %"class.gmx::AnalysisDataStorageFrame", ptr %10, i32 0, i32 3
  %51 = load i32, ptr %50, align 4
  %52 = add nsw i32 %51, %49
  store i32 %52, ptr %50, align 4
  br label %53

53:                                               ; preds = %46
  %54 = load i32, ptr %9, align 4
  %55 = add nsw i32 %54, 1
  store i32 %55, ptr %9, align 4
  br label %42, !llvm.loop !13

56:                                               ; preds = %42
  %57 = load ptr, ptr %6, align 8
  %58 = load i32, ptr %4, align 4
  %59 = call noundef i32 @_ZNK3gmx20AbstractAnalysisData11columnCountEi(ptr noundef nonnull align 8 dereferenceable(16) %57, i32 noundef %58)
  %60 = getelementptr inbounds %"class.gmx::AnalysisDataStorageFrame", ptr %10, i32 0, i32 4
  store i32 %59, ptr %60, align 8
  ret void
}