; Function Attrs: mustprogress uwtable
define void @_ZN3gmx24AnalysisDataStorageFrame13selectDataSetEi(ptr nocapture noundef nonnull align 8 dereferenceable(45) %0, i32 noundef %1) local_unnamed_addr #1 align 2 {
  %3 = load ptr, ptr %0, align 8
  %.not = icmp eq ptr %3, null
  br i1 %.not, label %4, label %5

4:                                                ; preds = %2
  tail call void @_ZN3gmx8internal13assertHandlerEPKcS2_S2_S2_i(ptr noundef nonnull @.str.28, ptr noundef nonnull @.str.29, ptr noundef nonnull @"__PRETTY_FUNCTION__._ZZN3gmx24AnalysisDataStorageFrame13selectDataSetEiENK3$_0clEv", ptr noundef nonnull @.str.2, i32 noundef 672) #19
  unreachable

5:                                                ; preds = %2
  %6 = load ptr, ptr %3, align 8
  %7 = load ptr, ptr %6, align 8
  %8 = icmp sgt i32 %1, -1
  br i1 %8, label %9, label %12

9:                                                ; preds = %5
  %10 = tail call noundef i32 @_ZNK3gmx20AbstractAnalysisData12dataSetCountEv(ptr noundef nonnull align 8 dereferenceable(16) %7)
  %11 = icmp sgt i32 %10, %1
  br i1 %11, label %13, label %12

12:                                               ; preds = %9, %5
  tail call void @_ZN3gmx8internal13assertHandlerEPKcS2_S2_S2_i(ptr noundef nonnull @.str.30, ptr noundef nonnull @.str.31, ptr noundef nonnull @"__PRETTY_FUNCTION__._ZZN3gmx24AnalysisDataStorageFrame13selectDataSetEiENK3$_0clEv", ptr noundef nonnull @.str.2, i32 noundef 674) #19
  unreachable

13:                                               ; preds = %9
  %14 = tail call noundef zeroext i1 @_ZNK3gmx20AbstractAnalysisData12isMultipointEv(ptr noundef nonnull align 8 dereferenceable(16) %7)
  br i1 %14, label %15, label %20

15:                                               ; preds = %13
  %16 = getelementptr inbounds i8, ptr %0, i64 44
  %17 = load i8, ptr %16, align 4
  %18 = trunc i8 %17 to i1
  br i1 %18, label %19, label %20

19:                                               ; preds = %15
  tail call void @_ZN3gmx8internal13assertHandlerEPKcS2_S2_S2_i(ptr noundef nonnull @.str.32, ptr noundef nonnull @.str.33, ptr noundef nonnull @"__PRETTY_FUNCTION__._ZZN3gmx24AnalysisDataStorageFrame13selectDataSetEiENK3$_0clEv", ptr noundef nonnull @.str.2, i32 noundef 676) #19
  unreachable

20:                                               ; preds = %13, %15
  %21 = getelementptr inbounds i8, ptr %0, i64 32
  store i32 %1, ptr %21, align 8
  %22 = getelementptr inbounds i8, ptr %0, i64 36
  store i32 0, ptr %22, align 4
  %.not14 = icmp eq i32 %1, 0
  br i1 %.not14, label %._crit_edge, label %.lr.ph

.lr.ph:                                           ; preds = %20, %.lr.ph
  %.013 = phi i32 [ %26, %.lr.ph ], [ 0, %20 ]
  %23 = tail call noundef i32 @_ZNK3gmx20AbstractAnalysisData11columnCountEi(ptr noundef nonnull align 8 dereferenceable(16) %7, i32 noundef %.013)
  %24 = load i32, ptr %22, align 4
  %25 = add nsw i32 %24, %23
  store i32 %25, ptr %22, align 4
  %26 = add nuw nsw i32 %.013, 1
  %exitcond.not = icmp eq i32 %26, %1
  br i1 %exitcond.not, label %._crit_edge, label %.lr.ph, !llvm.loop !42

._crit_edge:                                      ; preds = %.lr.ph, %20
  %27 = tail call noundef i32 @_ZNK3gmx20AbstractAnalysisData11columnCountEi(ptr noundef nonnull align 8 dereferenceable(16) %7, i32 noundef %1)
  %28 = getelementptr inbounds i8, ptr %0, i64 40
  store i32 %27, ptr %28, align 8
  ret void
}